target datalayout = "e-m:e-p270:32:32-p271:32:32-p272:64:64-i64:64-i128:128-f80:128-n8:16:32:64-S128"
target triple = "x86_64-pc-linux-gnu"

%struct.hiredisAllocFuncs = type { ptr, ptr, ptr, ptr, ptr }
%struct.redisReply = type { i32, i64, double, i64, ptr, [4 x i8], i64, ptr }

@hiredisAllocFns = external global %struct.hiredisAllocFuncs, align 8

; Function Attrs: inlinehint nounwind uwtable
define internal void @hi_free(ptr noundef %0) #2 {
  %2 = alloca ptr, align 8
  store ptr %0, ptr %2, align 8, !tbaa !4
  %3 = load ptr, ptr getelementptr inbounds nuw (%struct.hiredisAllocFuncs, ptr @hiredisAllocFns, i32 0, i32 4), align 8, !tbaa !22
  %4 = load ptr, ptr %2, align 8, !tbaa !4
  call void %3(ptr noundef %4)
  ret void
}

; Function Attrs: nounwind uwtable
define void @freeReplyObject(ptr noundef %0) #0 {
  %2 = alloca ptr, align 8
  %3 = alloca ptr, align 8
  %4 = alloca i64, align 8
  %5 = alloca i32, align 4
  store ptr %0, ptr %2, align 8, !tbaa !4
  call void @llvm.lifetime.start.p0(i64 8, ptr %3) #10
  %6 = load ptr, ptr %2, align 8, !tbaa !4
  store ptr %6, ptr %3, align 8, !tbaa !8
  call void @llvm.lifetime.start.p0(i64 8, ptr %4) #10
  %7 = load ptr, ptr %3, align 8, !tbaa !8
  %8 = icmp eq ptr %7, null
  br i1 %8, label %9, label %10

9:                                                ; preds = %1
  store i32 1, ptr %5, align 4
  br label %48

10:                                               ; preds = %1
  %11 = load ptr, ptr %3, align 8, !tbaa !8
  %12 = getelementptr inbounds nuw %struct.redisReply, ptr %11, i32 0, i32 0
  %13 = load i32, ptr %12, align 8, !tbaa !10
  switch i32 %13, label %46 [
    i32 3, label %14
    i32 4, label %14
    i32 8, label %14
    i32 2, label %15
    i32 9, label %15
    i32 10, label %15
    i32 12, label %15
    i32 6, label %42
    i32 5, label %42
    i32 1, label %42
    i32 7, label %42
    i32 14, label %42
    i32 13, label %42
  ]

14:                                               ; preds = %10, %10, %10
  br label %46

15:                                               ; preds = %10, %10, %10, %10
  %16 = load ptr, ptr %3, align 8, !tbaa !8
  %17 = getelementptr inbounds nuw %struct.redisReply, ptr %16, i32 0, i32 7
  %18 = load ptr, ptr %17, align 8, !tbaa !18
  %19 = icmp ne ptr %18, null
  br i1 %19, label %20, label %41

20:                                               ; preds = %15
  store i64 0, ptr %4, align 8, !tbaa !19
  br label %21

21:                                               ; preds = %34, %20
  %22 = load i64, ptr %4, align 8, !tbaa !19
  %23 = load ptr, ptr %3, align 8, !tbaa !8
  %24 = getelementptr inbounds nuw %struct.redisReply, ptr %23, i32 0, i32 6
  %25 = load i64, ptr %24, align 8, !tbaa !20
  %26 = icmp ult i64 %22, %25
  br i1 %26, label %27, label %37

27:                                               ; preds = %21
  %28 = load ptr, ptr %3, align 8, !tbaa !8
  %29 = getelementptr inbounds nuw %struct.redisReply, ptr %28, i32 0, i32 7
  %30 = load ptr, ptr %29, align 8, !tbaa !18
  %31 = load i64, ptr %4, align 8, !tbaa !19
  %32 = getelementptr inbounds nuw ptr, ptr %30, i64 %31
  %33 = load ptr, ptr %32, align 8, !tbaa !8
  call void @freeReplyObject(ptr noundef %33)
  br label %34

34:                                               ; preds = %27
  %35 = load i64, ptr %4, align 8, !tbaa !19
  %36 = add i64 %35, 1
  store i64 %36, ptr %4, align 8, !tbaa !19
  br label %21

37:                                               ; preds = %21
  %38 = load ptr, ptr %3, align 8, !tbaa !8
  %39 = getelementptr inbounds nuw %struct.redisReply, ptr %38, i32 0, i32 7
  %40 = load ptr, ptr %39, align 8, !tbaa !18
  call void @hi_free(ptr noundef %40)
  br label %41

41:                                               ; preds = %37, %15
  br label %46

42:                                               ; preds = %10, %10, %10, %10, %10, %10
  %43 = load ptr, ptr %3, align 8, !tbaa !8
  %44 = getelementptr inbounds nuw %struct.redisReply, ptr %43, i32 0, i32 4
  %45 = load ptr, ptr %44, align 8, !tbaa !21
  call void @hi_free(ptr noundef %45)
  br label %46

46:                                               ; preds = %10, %42, %41, %14
  %47 = load ptr, ptr %3, align 8, !tbaa !8
  call void @hi_free(ptr noundef %47)
  store i32 0, ptr %5, align 4
  br label %48

48:                                               ; preds = %46, %9
  call void @llvm.lifetime.end.p0(i64 8, ptr %4) #10
  call void @llvm.lifetime.end.p0(i64 8, ptr %3) #10
  %49 = load i32, ptr %5, align 4
  switch i32 %49, label %51 [
    i32 0, label %50
    i32 1, label %50
  ]

50:                                               ; preds = %48, %48
  ret void

51:                                               ; preds = %48
  unreachable
}