; Function Attrs: nounwind uwtable
define void @freeReplyObject(ptr noundef %0) #0 {
  %2 = icmp eq ptr %0, null
  br i1 %2, label %22, label %3

3:                                                ; preds = %1
  %4 = load i32, ptr %0, align 8, !tbaa !4
  switch i32 %4, label %20 [
    i32 13, label %16
    i32 14, label %16
    i32 7, label %16
    i32 2, label %5
    i32 9, label %5
    i32 10, label %5
    i32 12, label %5
    i32 6, label %16
    i32 5, label %16
    i32 1, label %16
  ]

5:                                                ; preds = %3, %3, %3, %3
  %6 = getelementptr inbounds nuw i8, ptr %0, i64 56
  %7 = load ptr, ptr %6, align 8, !tbaa !15
  %.not = icmp eq ptr %7, null
  br i1 %.not, label %20, label %.preheader

.preheader:                                       ; preds = %5
  %8 = getelementptr inbounds nuw i8, ptr %0, i64 48
  %9 = load i64, ptr %8, align 8, !tbaa !16
  %.not13 = icmp eq i64 %9, 0
  br i1 %.not13, label %.sink.split, label %.lr.ph

.lr.ph:                                           ; preds = %.preheader, %.lr.ph
  %.012 = phi i64 [ %13, %.lr.ph ], [ 0, %.preheader ]
  %10 = load ptr, ptr %6, align 8, !tbaa !15
  %11 = getelementptr inbounds nuw ptr, ptr %10, i64 %.012
  %12 = load ptr, ptr %11, align 8, !tbaa !17
  tail call void @freeReplyObject(ptr noundef %12)
  %13 = add nuw i64 %.012, 1
  %14 = load i64, ptr %8, align 8, !tbaa !16
  %15 = icmp ult i64 %13, %14
  br i1 %15, label %.lr.ph, label %._crit_edge.loopexit

._crit_edge.loopexit:                             ; preds = %.lr.ph
  %.pre = load ptr, ptr %6, align 8, !tbaa !15
  br label %.sink.split

16:                                               ; preds = %3, %3, %3, %3, %3, %3
  %17 = getelementptr inbounds nuw i8, ptr %0, i64 32
  %18 = load ptr, ptr %17, align 8, !tbaa !19
  br label %.sink.split

.sink.split:                                      ; preds = %.preheader, %._crit_edge.loopexit, %16
  %.sink = phi ptr [ %18, %16 ], [ %.pre, %._crit_edge.loopexit ], [ %7, %.preheader ]
  %19 = load ptr, ptr getelementptr inbounds nuw (i8, ptr @hiredisAllocFns, i64 32), align 8, !tbaa !20
  tail call void %19(ptr noundef %.sink) #13
  br label %20

20:                                               ; preds = %.sink.split, %5, %3
  %21 = load ptr, ptr getelementptr inbounds nuw (i8, ptr @hiredisAllocFns, i64 32), align 8, !tbaa !20
  tail call void %21(ptr noundef nonnull %0) #13
  br label %22

22:                                               ; preds = %1, %20
  ret void
}